target datalayout = "e-m:e-p270:32:32-p271:32:32-p272:64:64-i64:64-i128:128-f80:128-n8:16:32:64-S128"
target triple = "x86_64-unknown-linux-gnu"

%struct.VirtIOSCSICommon = type { %struct.VirtIODevice, %struct.VirtIOSCSIConf, i32, i32, ptr, ptr, ptr }
%struct.VirtIODevice = type { %struct.DeviceState, ptr, i8, i8, i16, i64, i64, i64, i64, ptr, i16, i32, i32, ptr, %struct.MemoryListener, i16, i8, i8, i8, i8, i8, i8, i8, i8, i8, ptr, ptr, i8, i8, ptr, ptr, %union.anon.1, %struct.EventNotifier, i8 }
%struct.DeviceState = type { %struct.Object, ptr, ptr, i8, i8, i64, ptr, i32, i8, ptr, %struct.NamedGPIOListHead, %struct.NamedClockListHead, %struct.BusStateHead, i32, i32, i32, %struct.ResettableState, ptr, %struct.MemReentrancyGuard }
%struct.Object = type { ptr, ptr, ptr, i32, ptr }
%struct.NamedGPIOListHead = type { ptr }
%struct.NamedClockListHead = type { ptr }
%struct.BusStateHead = type { ptr }
%struct.ResettableState = type { i32, i8, i8 }
%struct.MemReentrancyGuard = type { i8 }
%struct.MemoryListener = type { ptr, ptr, ptr, ptr, ptr, ptr, ptr, ptr, ptr, ptr, ptr, ptr, ptr, ptr, ptr, ptr, ptr, i32, ptr, ptr, %union.anon, %union.anon.0 }
%union.anon = type { %struct.QTailQLink }
%struct.QTailQLink = type { ptr, ptr }
%union.anon.0 = type { %struct.QTailQLink }
%union.anon.1 = type { %struct.QTailQLink }
%struct.EventNotifier = type { i32, i32, i8 }
%struct.VirtIOSCSIConf = type { i32, i32, i8, i32, i32, ptr, ptr, %struct.CharBackend, i32, ptr }
%struct.CharBackend = type { ptr, ptr, ptr, ptr, ptr, ptr, i32, i32 }
%struct.VirtIOSCSIReq = type <{ %struct.VirtQueueElement, ptr, ptr, %struct.QEMUSGList, %struct.QEMUIOVector, %union.anon.6, i32, [4 x i8], ptr, i64, i32, %union.anon.7, %union.anon.8, [4 x i8] }>
%struct.VirtQueueElement = type { i32, i32, i32, i32, i32, ptr, ptr, ptr, ptr }
%struct.QEMUSGList = type { ptr, i32, i32, i64, ptr, ptr }
%struct.QEMUIOVector = type { ptr, i32, %union.anon.4 }
%union.anon.4 = type { %struct.anon }
%struct.anon = type { i32, %struct.iovec }
%struct.iovec = type { ptr, i64 }
%union.anon.6 = type { %struct.QTailQLink }
%union.anon.7 = type { %struct.virtio_scsi_event }
%struct.virtio_scsi_event = type { i32, [8 x i8], i32 }
%union.anon.8 = type { %struct.virtio_scsi_ctrl_tmf_req }
%struct.virtio_scsi_ctrl_tmf_req = type { i32, i32, [8 x i8], i64 }
%struct.SCSIRequest = type { ptr, ptr, ptr, i32, i32, i32, i16, i16, ptr, i64, %struct.SCSICommand, %struct.NotifierList, [252 x i8], i32, i8, i8, i8, i8, ptr, ptr, %union.anon.11 }
%struct.SCSICommand = type { [16 x i8], i32, i64, i64, i32 }
%struct.NotifierList = type { %struct.anon.10 }
%struct.anon.10 = type { ptr }
%union.anon.11 = type { %struct.QTailQLink }

@.str = private unnamed_addr constant [30 x i8] c"../qemu/hw/scsi/virtio-scsi.c\00", align 1
@.str.3 = private unnamed_addr constant [14 x i8] c"virtio-device\00", align 1
@.str.4 = private unnamed_addr constant [105 x i8] c"/home/dtcxzyw/WorkSpace/Projects/compilers/llvm-opt-benchmark/bench/qemu/qemu/include/hw/virtio/virtio.h\00", align 1
@__func__.VIRTIO_DEVICE = private unnamed_addr constant [14 x i8] c"VIRTIO_DEVICE\00", align 1
@.str.5 = private unnamed_addr constant [19 x i8] c"virtio-scsi-common\00", align 1
@.str.6 = private unnamed_addr constant [110 x i8] c"/home/dtcxzyw/WorkSpace/Projects/compilers/llvm-opt-benchmark/bench/qemu/qemu/include/hw/virtio/virtio-scsi.h\00", align 1
@__func__.VIRTIO_SCSI_COMMON = private unnamed_addr constant [19 x i8] c"VIRTIO_SCSI_COMMON\00", align 1
@.str.7 = private unnamed_addr constant [7 x i8] c"device\00", align 1
@.str.8 = private unnamed_addr constant [101 x i8] c"/home/dtcxzyw/WorkSpace/Projects/compilers/llvm-opt-benchmark/bench/qemu/qemu/include/hw/qdev-core.h\00", align 1
@__func__.DEVICE = private unnamed_addr constant [7 x i8] c"DEVICE\00", align 1
@.str.49 = private unnamed_addr constant [24 x i8] c"n < vs->conf.num_queues\00", align 1
@__PRETTY_FUNCTION__.virtio_scsi_load_request = private unnamed_addr constant [58 x i8] c"void *virtio_scsi_load_request(QEMUFile *, SCSIRequest *)\00", align 1
@.str.50 = private unnamed_addr constant [36 x i8] c"invalid SCSI request migration data\00", align 1
@.str.51 = private unnamed_addr constant [33 x i8] c"req->sreq->cmd.mode == req->mode\00", align 1

; Function Attrs: nounwind sspstrong uwtable
define internal ptr @DEVICE(ptr noundef %obj) #0 {
entry:
  %obj.addr = alloca ptr, align 8
  store ptr %obj, ptr %obj.addr, align 8
  %0 = load ptr, ptr %obj.addr, align 8
  %call = call ptr @object_dynamic_cast_assert(ptr noundef %0, ptr noundef @.str.7, ptr noundef @.str.8, i32 noundef 77, ptr noundef @__func__.DEVICE)
  ret ptr %call
}

; Function Attrs: nounwind sspstrong uwtable
define internal void @virtio_scsi_init_req(ptr noundef %s, ptr noundef %vq, ptr noundef %req) #0 {
entry:
  %s.addr = alloca ptr, align 8
  %vq.addr = alloca ptr, align 8
  %req.addr = alloca ptr, align 8
  %vdev = alloca ptr, align 8
  %zero_skip = alloca i64, align 8
  store ptr %s, ptr %s.addr, align 8
  store ptr %vq, ptr %vq.addr, align 8
  store ptr %req, ptr %req.addr, align 8
  %0 = load ptr, ptr %s.addr, align 8
  %call = call ptr @VIRTIO_DEVICE(ptr noundef %0)
  store ptr %call, ptr %vdev, align 8
  store i64 152, ptr %zero_skip, align 8
  %1 = load ptr, ptr %vq.addr, align 8
  %2 = load ptr, ptr %req.addr, align 8
  %vq1 = getelementptr inbounds %struct.VirtIOSCSIReq, ptr %2, i32 0, i32 2
  store ptr %1, ptr %vq1, align 8
  %3 = load ptr, ptr %s.addr, align 8
  %4 = load ptr, ptr %req.addr, align 8
  %dev = getelementptr inbounds %struct.VirtIOSCSIReq, ptr %4, i32 0, i32 1
  store ptr %3, ptr %dev, align 8
  %5 = load ptr, ptr %req.addr, align 8
  %qsgl = getelementptr inbounds %struct.VirtIOSCSIReq, ptr %5, i32 0, i32 3
  %6 = load ptr, ptr %s.addr, align 8
  %call2 = call ptr @DEVICE(ptr noundef %6)
  %7 = load ptr, ptr %vdev, align 8
  %dma_as = getelementptr inbounds %struct.VirtIODevice, ptr %7, i32 0, i32 29
  %8 = load ptr, ptr %dma_as, align 8
  call void @qemu_sglist_init(ptr noundef %qsgl, ptr noundef %call2, i32 noundef 8, ptr noundef %8)
  %9 = load ptr, ptr %req.addr, align 8
  %resp_iov = getelementptr inbounds %struct.VirtIOSCSIReq, ptr %9, i32 0, i32 4
  call void @qemu_iovec_init(ptr noundef %resp_iov, i32 noundef 1)
  %10 = load ptr, ptr %req.addr, align 8
  %add.ptr = getelementptr i8, ptr %10, i64 152
  call void @llvm.memset.p0.i64(ptr align 1 %add.ptr, i8 0, i64 88, i1 false)
  ret void
}

; Function Attrs: nounwind sspstrong uwtable
define internal void @qemu_get_be32s(ptr noundef %f, ptr noundef %pv) #0 {
entry:
  %f.addr = alloca ptr, align 8
  %pv.addr = alloca ptr, align 8
  store ptr %f, ptr %f.addr, align 8
  store ptr %pv, ptr %pv.addr, align 8
  %0 = load ptr, ptr %f.addr, align 8
  %call = call i32 @qemu_get_be32(ptr noundef %0)
  %1 = load ptr, ptr %pv.addr, align 8
  store i32 %call, ptr %1, align 4
  ret void
}

; Function Attrs: nounwind sspstrong uwtable
define internal ptr @VIRTIO_DEVICE(ptr noundef %obj) #0 {
entry:
  %obj.addr = alloca ptr, align 8
  store ptr %obj, ptr %obj.addr, align 8
  %0 = load ptr, ptr %obj.addr, align 8
  %call = call ptr @object_dynamic_cast_assert(ptr noundef %0, ptr noundef @.str.3, ptr noundef @.str.4, i32 noundef 85, ptr noundef @__func__.VIRTIO_DEVICE)
  ret ptr %call
}

; Function Attrs: nounwind sspstrong uwtable
define internal ptr @VIRTIO_SCSI_COMMON(ptr noundef %obj) #0 {
entry:
  %obj.addr = alloca ptr, align 8
  store ptr %obj, ptr %obj.addr, align 8
  %0 = load ptr, ptr %obj.addr, align 8
  %call = call ptr @object_dynamic_cast_assert(ptr noundef %0, ptr noundef @.str.5, ptr noundef @.str.6, i32 noundef 28, ptr noundef @__func__.VIRTIO_SCSI_COMMON)
  ret ptr %call
}

; Function Attrs: nounwind sspstrong uwtable
define internal ptr @virtio_scsi_load_request(ptr noundef %f, ptr noundef %sreq) #0 {
entry:
  %f.addr = alloca ptr, align 8
  %sreq.addr = alloca ptr, align 8
  %bus = alloca ptr, align 8
  %s = alloca ptr, align 8
  %__mptr = alloca ptr, align 8
  %tmp = alloca ptr, align 8
  %vs = alloca ptr, align 8
  %vdev = alloca ptr, align 8
  %req = alloca ptr, align 8
  %n = alloca i32, align 4
  store ptr %f, ptr %f.addr, align 8
  store ptr %sreq, ptr %sreq.addr, align 8
  %0 = load ptr, ptr %sreq.addr, align 8
  %bus1 = getelementptr inbounds %struct.SCSIRequest, ptr %0, i32 0, i32 0
  %1 = load ptr, ptr %bus1, align 8
  store ptr %1, ptr %bus, align 8
  %2 = load ptr, ptr %bus, align 8
  store ptr %2, ptr %__mptr, align 8
  %3 = load ptr, ptr %__mptr, align 8
  %add.ptr = getelementptr i8, ptr %3, i64 -664
  store ptr %add.ptr, ptr %tmp, align 8
  %4 = load ptr, ptr %tmp, align 8
  store ptr %4, ptr %s, align 8
  %5 = load ptr, ptr %s, align 8
  %call = call ptr @VIRTIO_SCSI_COMMON(ptr noundef %5)
  store ptr %call, ptr %vs, align 8
  %6 = load ptr, ptr %s, align 8
  %call2 = call ptr @VIRTIO_DEVICE(ptr noundef %6)
  store ptr %call2, ptr %vdev, align 8
  %7 = load ptr, ptr %f.addr, align 8
  call void @qemu_get_be32s(ptr noundef %7, ptr noundef %n)
  %8 = load i32, ptr %n, align 4
  %9 = load ptr, ptr %vs, align 8
  %conf = getelementptr inbounds %struct.VirtIOSCSICommon, ptr %9, i32 0, i32 1
  %num_queues = getelementptr inbounds %struct.VirtIOSCSIConf, ptr %conf, i32 0, i32 0
  %10 = load i32, ptr %num_queues, align 8
  %cmp = icmp ult i32 %8, %10
  br i1 %cmp, label %if.then, label %if.else

if.then:                                          ; preds = %entry
  br label %if.end

if.else:                                          ; preds = %entry
  call void @__assert_fail(ptr noundef @.str.49, ptr noundef @.str, i32 noundef 249, ptr noundef @__PRETTY_FUNCTION__.virtio_scsi_load_request) #11
  unreachable

if.end:                                           ; preds = %if.then
  %11 = load ptr, ptr %vdev, align 8
  %12 = load ptr, ptr %f.addr, align 8
  %13 = load ptr, ptr %vs, align 8
  %cdb_size = getelementptr inbounds %struct.VirtIOSCSICommon, ptr %13, i32 0, i32 3
  %14 = load i32, ptr %cdb_size, align 4
  %conv = zext i32 %14 to i64
  %add = add i64 240, %conv
  %call3 = call ptr @qemu_get_virtqueue_element(ptr noundef %11, ptr noundef %12, i64 noundef %add)
  store ptr %call3, ptr %req, align 8
  %15 = load ptr, ptr %s, align 8
  %16 = load ptr, ptr %vs, align 8
  %cmd_vqs = getelementptr inbounds %struct.VirtIOSCSICommon, ptr %16, i32 0, i32 6
  %17 = load ptr, ptr %cmd_vqs, align 8
  %18 = load i32, ptr %n, align 4
  %idxprom = zext i32 %18 to i64
  %arrayidx = getelementptr ptr, ptr %17, i64 %idxprom
  %19 = load ptr, ptr %arrayidx, align 8
  %20 = load ptr, ptr %req, align 8
  call void @virtio_scsi_init_req(ptr noundef %15, ptr noundef %19, ptr noundef %20)
  %21 = load ptr, ptr %req, align 8
  %22 = load ptr, ptr %vs, align 8
  %cdb_size4 = getelementptr inbounds %struct.VirtIOSCSICommon, ptr %22, i32 0, i32 3
  %23 = load i32, ptr %cdb_size4, align 4
  %conv5 = zext i32 %23 to i64
  %add6 = add i64 19, %conv5
  %conv7 = trunc i64 %add6 to i32
  %24 = load ptr, ptr %vs, align 8
  %sense_size = getelementptr inbounds %struct.VirtIOSCSICommon, ptr %24, i32 0, i32 2
  %25 = load i32, ptr %sense_size, align 8
  %conv8 = zext i32 %25 to i64
  %add9 = add i64 12, %conv8
  %conv10 = trunc i64 %add9 to i32
  %call11 = call i32 @virtio_scsi_parse_req(ptr noundef %21, i32 noundef %conv7, i32 noundef %conv10)
  %cmp12 = icmp slt i32 %call11, 0
  br i1 %cmp12, label %if.then14, label %if.end15

if.then14:                                        ; preds = %if.end
  call void (ptr, ...) @error_report(ptr noundef @.str.50)
  call void @exit(i32 noundef 1) #11
  unreachable

if.end15:                                         ; preds = %if.end
  %26 = load ptr, ptr %sreq.addr, align 8
  %call16 = call ptr @scsi_req_ref(ptr noundef %26)
  %27 = load ptr, ptr %sreq.addr, align 8
  %28 = load ptr, ptr %req, align 8
  %sreq17 = getelementptr inbounds %struct.VirtIOSCSIReq, ptr %28, i32 0, i32 8
  store ptr %27, ptr %sreq17, align 8
  %29 = load ptr, ptr %req, align 8
  %sreq18 = getelementptr inbounds %struct.VirtIOSCSIReq, ptr %29, i32 0, i32 8
  %30 = load ptr, ptr %sreq18, align 8
  %cmd = getelementptr inbounds %struct.SCSIRequest, ptr %30, i32 0, i32 10
  %mode = getelementptr inbounds %struct.SCSICommand, ptr %cmd, i32 0, i32 4
  %31 = load i32, ptr %mode, align 8
  %cmp19 = icmp ne i32 %31, 0
  br i1 %cmp19, label %if.then21, label %if.end31

if.then21:                                        ; preds = %if.end15
  %32 = load ptr, ptr %req, align 8
  %sreq22 = getelementptr inbounds %struct.VirtIOSCSIReq, ptr %32, i32 0, i32 8
  %33 = load ptr, ptr %sreq22, align 8
  %cmd23 = getelementptr inbounds %struct.SCSIRequest, ptr %33, i32 0, i32 10
  %mode24 = getelementptr inbounds %struct.SCSICommand, ptr %cmd23, i32 0, i32 4
  %34 = load i32, ptr %mode24, align 8
  %35 = load ptr, ptr %req, align 8
  %mode25 = getelementptr inbounds %struct.VirtIOSCSIReq, ptr %35, i32 0, i32 10
  %36 = load i32, ptr %mode25, align 8
  %cmp26 = icmp eq i32 %34, %36
  br i1 %cmp26, label %if.then28, label %if.else29

if.then28:                                        ; preds = %if.then21
  br label %if.end30

if.else29:                                        ; preds = %if.then21
  call void @__assert_fail(ptr noundef @.str.51, ptr noundef @.str, i32 noundef 263, ptr noundef @__PRETTY_FUNCTION__.virtio_scsi_load_request) #11
  unreachable

if.end30:                                         ; preds = %if.then28
  br label %if.end31

if.end31:                                         ; preds = %if.end30, %if.end15
  %37 = load ptr, ptr %req, align 8
  ret ptr %37
}