; Function Attrs: nounwind sspstrong uwtable
define internal ptr @virtio_scsi_load_request(ptr noundef %f, ptr noundef %sreq) #0 {
entry:
  %0 = load ptr, ptr %sreq, align 8
  %add.ptr = getelementptr i8, ptr %0, i64 -664
  %call.i = tail call ptr @object_dynamic_cast_assert(ptr noundef %add.ptr, ptr noundef nonnull @.str.5, ptr noundef nonnull @.str.6, i32 noundef 28, ptr noundef nonnull @__func__.VIRTIO_SCSI_COMMON) #13
  %call.i16 = tail call ptr @object_dynamic_cast_assert(ptr noundef %add.ptr, ptr noundef nonnull @.str.3, ptr noundef nonnull @.str.4, i32 noundef 85, ptr noundef nonnull @__func__.VIRTIO_DEVICE) #13
  %call.i17 = tail call i32 @qemu_get_be32(ptr noundef %f) #13
  %conf = getelementptr inbounds nuw i8, ptr %call.i, i64 520
  %1 = load i32, ptr %conf, align 8
  %cmp = icmp ult i32 %call.i17, %1
  br i1 %cmp, label %if.end, label %if.else

if.else:                                          ; preds = %entry
  tail call void @__assert_fail(ptr noundef nonnull @.str.49, ptr noundef nonnull @.str, i32 noundef 249, ptr noundef nonnull @__PRETTY_FUNCTION__.virtio_scsi_load_request) #15
  unreachable

if.end:                                           ; preds = %entry
  %cdb_size = getelementptr inbounds nuw i8, ptr %call.i, i64 636
  %2 = load i32, ptr %cdb_size, align 4
  %conv = zext i32 %2 to i64
  %add = add nuw nsw i64 %conv, 240
  %call3 = tail call ptr @qemu_get_virtqueue_element(ptr noundef %call.i16, ptr noundef %f, i64 noundef %add) #13
  %cmd_vqs = getelementptr inbounds nuw i8, ptr %call.i, i64 656
  %3 = load ptr, ptr %cmd_vqs, align 8
  %idxprom = zext i32 %call.i17 to i64
  %arrayidx = getelementptr ptr, ptr %3, i64 %idxprom
  %4 = load ptr, ptr %arrayidx, align 8
  %call.i.i = tail call ptr @object_dynamic_cast_assert(ptr noundef %add.ptr, ptr noundef nonnull @.str.3, ptr noundef nonnull @.str.4, i32 noundef 85, ptr noundef nonnull @__func__.VIRTIO_DEVICE) #13
  %vq1.i = getelementptr inbounds nuw i8, ptr %call3, i64 64
  store ptr %4, ptr %vq1.i, align 8
  %dev.i = getelementptr inbounds nuw i8, ptr %call3, i64 56
  store ptr %add.ptr, ptr %dev.i, align 8
  %qsgl.i = getelementptr inbounds nuw i8, ptr %call3, i64 72
  %call.i7.i = tail call ptr @object_dynamic_cast_assert(ptr noundef %add.ptr, ptr noundef nonnull @.str.7, ptr noundef nonnull @.str.8, i32 noundef 77, ptr noundef nonnull @__func__.DEVICE) #13
  %dma_as.i = getelementptr inbounds nuw i8, ptr %call.i.i, i64 472
  %5 = load ptr, ptr %dma_as.i, align 8
  tail call void @qemu_sglist_init(ptr noundef nonnull %qsgl.i, ptr noundef %call.i7.i, i32 noundef 8, ptr noundef %5) #13
  %resp_iov.i = getelementptr inbounds nuw i8, ptr %call3, i64 112
  tail call void @qemu_iovec_init(ptr noundef nonnull %resp_iov.i, i32 noundef 1) #13
  %add.ptr.i = getelementptr i8, ptr %call3, i64 152
  tail call void @llvm.memset.p0.i64(ptr noundef nonnull align 1 dereferenceable(88) %add.ptr.i, i8 0, i64 88, i1 false)
  %6 = load i32, ptr %cdb_size, align 4
  %add6 = add i32 %6, 19
  %sense_size = getelementptr inbounds nuw i8, ptr %call.i, i64 632
  %7 = load i32, ptr %sense_size, align 8
  %add9 = add i32 %7, 12
  %call11 = tail call fastcc i32 @virtio_scsi_parse_req(ptr noundef %call3, i32 noundef %add6, i32 noundef %add9)
  %cmp12 = icmp slt i32 %call11, 0
  br i1 %cmp12, label %if.then14, label %if.end15

if.then14:                                        ; preds = %if.end
  tail call void (ptr, ...) @error_report(ptr noundef nonnull @.str.50) #13
  tail call void @exit(i32 noundef 1) #16
  unreachable

if.end15:                                         ; preds = %if.end
  %call16 = tail call ptr @scsi_req_ref(ptr noundef nonnull %sreq) #13
  %sreq17 = getelementptr inbounds nuw i8, ptr %call3, i64 176
  store ptr %sreq, ptr %sreq17, align 8
  %mode = getelementptr inbounds nuw i8, ptr %sreq, i64 96
  %8 = load i32, ptr %mode, align 8
  %cmp19.not = icmp eq i32 %8, 0
  br i1 %cmp19.not, label %if.end31, label %if.then21

if.then21:                                        ; preds = %if.end15
  %mode25 = getelementptr inbounds nuw i8, ptr %call3, i64 192
  %9 = load i32, ptr %mode25, align 8
  %cmp26 = icmp eq i32 %8, %9
  br i1 %cmp26, label %if.end31, label %if.else29

if.else29:                                        ; preds = %if.then21
  tail call void @__assert_fail(ptr noundef nonnull @.str.51, ptr noundef nonnull @.str, i32 noundef 263, ptr noundef nonnull @__PRETTY_FUNCTION__.virtio_scsi_load_request) #15
  unreachable

if.end31:                                         ; preds = %if.then21, %if.end15
  ret ptr %call3
}